target datalayout = "e-m:e-p270:32:32-p271:32:32-p272:64:64-i64:64-i128:128-f80:128-n8:16:32:64-S128"
target triple = "x86_64-pc-linux-gnu"

%struct.UConverter = type { ptr, ptr, ptr, ptr, ptr, ptr, ptr, i32, i8, i8, i8, i8, i8, [7 x i8], i32, i32, i32, i32, i8, i8, i8, i8, i8, i8, i8, i8, [8 x i8], [32 x i8], [2 x i16], [2 x i16], [32 x i16], i32, [19 x i16], [31 x i8], i8, i8, i8, i32 }
%struct.UConverterSharedData = type { i32, i32, ptr, ptr, i8, i8, ptr, i32, %struct.UConverterMBCSTable }
%struct.UConverterMBCSTable = type { i8, i8, i8, i32, ptr, ptr, ptr, ptr, ptr, ptr, [64 x i16], ptr, ptr, i32, i8, i8, i8, i16, i32, ptr, ptr, ptr, ptr }
%struct.UConverterImpl = type { i32, ptr, ptr, ptr, ptr, ptr, ptr, ptr, ptr, ptr, ptr, ptr, ptr, ptr, ptr, ptr, ptr, ptr }
%struct.UConverterStaticData = type { i32, [60 x i8], i32, i8, i8, i8, i8, [4 x i8], i8, i8, i8, i8, i8, [19 x i8] }

; Function Attrs: inlinehint mustprogress nounwind uwtable
define internal noundef signext i8 @_ZL9U_FAILURE10UErrorCode(i32 noundef %0) #2 {
  %2 = alloca i32, align 4
  store i32 %0, ptr %2, align 4, !tbaa !9
  %3 = load i32, ptr %2, align 4, !tbaa !9
  %4 = icmp sgt i32 %3, 0
  %5 = zext i1 %4 to i8
  ret i8 %5
}

; Function Attrs: mustprogress uwtable
define void @ucnv_setFromUCallBack_77(ptr noundef %0, ptr noundef %1, ptr noundef %2, ptr noundef %3, ptr noundef %4, ptr noundef %5) #0 {
  %7 = alloca ptr, align 8
  %8 = alloca ptr, align 8
  %9 = alloca ptr, align 8
  %10 = alloca ptr, align 8
  %11 = alloca ptr, align 8
  %12 = alloca ptr, align 8
  store ptr %0, ptr %7, align 8, !tbaa !11
  store ptr %1, ptr %8, align 8, !tbaa !8
  store ptr %2, ptr %9, align 8, !tbaa !8
  store ptr %3, ptr %10, align 8, !tbaa !60
  store ptr %4, ptr %11, align 8, !tbaa !60
  store ptr %5, ptr %12, align 8, !tbaa !8
  %13 = load ptr, ptr %12, align 8, !tbaa !8
  %14 = load i32, ptr %13, align 4, !tbaa !9
  %15 = call noundef signext i8 @_ZL9U_FAILURE10UErrorCode(i32 noundef %14)
  %16 = icmp ne i8 %15, 0
  br i1 %16, label %17, label %18

17:                                               ; preds = %6
  br label %41

18:                                               ; preds = %6
  %19 = load ptr, ptr %10, align 8, !tbaa !60
  %20 = icmp ne ptr %19, null
  br i1 %20, label %21, label %26

21:                                               ; preds = %18
  %22 = load ptr, ptr %7, align 8, !tbaa !11
  %23 = getelementptr inbounds nuw %struct.UConverter, ptr %22, i32 0, i32 0
  %24 = load ptr, ptr %23, align 8, !tbaa !49
  %25 = load ptr, ptr %10, align 8, !tbaa !60
  store ptr %24, ptr %25, align 8, !tbaa !8
  br label %26

26:                                               ; preds = %21, %18
  %27 = load ptr, ptr %8, align 8, !tbaa !8
  %28 = load ptr, ptr %7, align 8, !tbaa !11
  %29 = getelementptr inbounds nuw %struct.UConverter, ptr %28, i32 0, i32 0
  store ptr %27, ptr %29, align 8, !tbaa !49
  %30 = load ptr, ptr %11, align 8, !tbaa !60
  %31 = icmp ne ptr %30, null
  br i1 %31, label %32, label %37

32:                                               ; preds = %26
  %33 = load ptr, ptr %7, align 8, !tbaa !11
  %34 = getelementptr inbounds nuw %struct.UConverter, ptr %33, i32 0, i32 3
  %35 = load ptr, ptr %34, align 8, !tbaa !50
  %36 = load ptr, ptr %11, align 8, !tbaa !60
  store ptr %35, ptr %36, align 8, !tbaa !8
  br label %37

37:                                               ; preds = %32, %26
  %38 = load ptr, ptr %9, align 8, !tbaa !8
  %39 = load ptr, ptr %7, align 8, !tbaa !11
  %40 = getelementptr inbounds nuw %struct.UConverter, ptr %39, i32 0, i32 3
  store ptr %38, ptr %40, align 8, !tbaa !50
  br label %41

41:                                               ; preds = %37, %17
  ret void
}

; Function Attrs: mustprogress uwtable
define void @ucnv_setSubstString_77(ptr noundef %0, ptr noundef %1, i32 noundef %2, ptr noundef %3) #0 {
  %5 = alloca ptr, align 8
  %6 = alloca ptr, align 8
  %7 = alloca i32, align 4
  %8 = alloca ptr, align 8
  %9 = alloca [1024 x i8], align 8
  %10 = alloca [32 x i8], align 16
  %11 = alloca ptr, align 8
  %12 = alloca ptr, align 8
  %13 = alloca i32, align 4
  %14 = alloca i32, align 4
  %15 = alloca i32, align 4
  store ptr %0, ptr %5, align 8, !tbaa !11
  store ptr %1, ptr %6, align 8, !tbaa !13
  store i32 %2, ptr %7, align 4, !tbaa !15
  store ptr %3, ptr %8, align 8, !tbaa !8
  call void @llvm.lifetime.start.p0(i64 1024, ptr %9) #11
  call void @llvm.lifetime.start.p0(i64 32, ptr %10) #11
  call void @llvm.lifetime.start.p0(i64 8, ptr %11) #11
  call void @llvm.lifetime.start.p0(i64 8, ptr %12) #11
  call void @llvm.lifetime.start.p0(i64 4, ptr %13) #11
  call void @llvm.lifetime.start.p0(i64 4, ptr %14) #11
  store i32 1024, ptr %13, align 4, !tbaa !15
  %16 = load ptr, ptr %5, align 8, !tbaa !11
  %17 = getelementptr inbounds [1024 x i8], ptr %9, i64 0, i64 0
  %18 = load ptr, ptr %8, align 8, !tbaa !8
  %19 = call ptr @ucnv_safeClone_77(ptr noundef %16, ptr noundef %17, ptr noundef %13, ptr noundef %18)
  store ptr %19, ptr %11, align 8, !tbaa !11
  %20 = load ptr, ptr %11, align 8, !tbaa !11
  %21 = load ptr, ptr %8, align 8, !tbaa !8
  call void @ucnv_setFromUCallBack_77(ptr noundef %20, ptr noundef @UCNV_FROM_U_CALLBACK_STOP_77, ptr noundef null, ptr noundef null, ptr noundef null, ptr noundef %21)
  %22 = load ptr, ptr %11, align 8, !tbaa !11
  %23 = getelementptr inbounds [32 x i8], ptr %10, i64 0, i64 0
  %24 = load ptr, ptr %6, align 8, !tbaa !13
  %25 = load i32, ptr %7, align 4, !tbaa !15
  %26 = load ptr, ptr %8, align 8, !tbaa !8
  %27 = call i32 @ucnv_fromUChars_77(ptr noundef %22, ptr noundef %23, i32 noundef 32, ptr noundef %24, i32 noundef %25, ptr noundef %26)
  store i32 %27, ptr %14, align 4, !tbaa !15
  %28 = load ptr, ptr %11, align 8, !tbaa !11
  call void @ucnv_close_77(ptr noundef %28)
  %29 = load ptr, ptr %8, align 8, !tbaa !8
  %30 = load i32, ptr %29, align 4, !tbaa !9
  %31 = call noundef signext i8 @_ZL9U_FAILURE10UErrorCode(i32 noundef %30)
  %32 = icmp ne i8 %31, 0
  br i1 %32, label %33, label %34

33:                                               ; preds = %4
  store i32 1, ptr %15, align 4
  br label %139

34:                                               ; preds = %4
  %35 = load ptr, ptr %5, align 8, !tbaa !11
  %36 = getelementptr inbounds nuw %struct.UConverter, ptr %35, i32 0, i32 6
  %37 = load ptr, ptr %36, align 8, !tbaa !22
  %38 = getelementptr inbounds nuw %struct.UConverterSharedData, ptr %37, i32 0, i32 6
  %39 = load ptr, ptr %38, align 8, !tbaa !26
  %40 = getelementptr inbounds nuw %struct.UConverterImpl, ptr %39, i32 0, i32 13
  %41 = load ptr, ptr %40, align 8, !tbaa !58
  %42 = icmp eq ptr %41, null
  br i1 %42, label %57, label %43

43:                                               ; preds = %34
  %44 = load ptr, ptr %5, align 8, !tbaa !11
  %45 = getelementptr inbounds nuw %struct.UConverter, ptr %44, i32 0, i32 6
  %46 = load ptr, ptr %45, align 8, !tbaa !22
  %47 = getelementptr inbounds nuw %struct.UConverterSharedData, ptr %46, i32 0, i32 3
  %48 = load ptr, ptr %47, align 8, !tbaa !53
  %49 = getelementptr inbounds nuw %struct.UConverterStaticData, ptr %48, i32 0, i32 4
  %50 = load i8, ptr %49, align 1, !tbaa !59
  %51 = sext i8 %50 to i32
  %52 = icmp eq i32 %51, 2
  br i1 %52, label %53, label %59

53:                                               ; preds = %43
  %54 = load ptr, ptr %5, align 8, !tbaa !11
  %55 = call i32 @ucnv_MBCSGetType_77(ptr noundef %54)
  %56 = icmp ne i32 %55, 9
  br i1 %56, label %57, label %59

57:                                               ; preds = %53, %34
  %58 = getelementptr inbounds [32 x i8], ptr %10, i64 0, i64 0
  store ptr %58, ptr %12, align 8, !tbaa !3
  br label %74

59:                                               ; preds = %53, %43
  %60 = load i32, ptr %7, align 4, !tbaa !15
  %61 = icmp sgt i32 %60, 32
  br i1 %61, label %62, label %64

62:                                               ; preds = %59
  %63 = load ptr, ptr %8, align 8, !tbaa !8
  store i32 15, ptr %63, align 4, !tbaa !9
  store i32 1, ptr %15, align 4
  br label %139

64:                                               ; preds = %59
  %65 = load ptr, ptr %6, align 8, !tbaa !13
  store ptr %65, ptr %12, align 8, !tbaa !3
  %66 = load i32, ptr %7, align 4, !tbaa !15
  %67 = icmp slt i32 %66, 0
  br i1 %67, label %68, label %71

68:                                               ; preds = %64
  %69 = load ptr, ptr %6, align 8, !tbaa !13
  %70 = call i32 @u_strlen_77(ptr noundef %69)
  store i32 %70, ptr %7, align 4, !tbaa !15
  br label %71

71:                                               ; preds = %68, %64
  %72 = load i32, ptr %7, align 4, !tbaa !15
  %73 = mul nsw i32 %72, 2
  store i32 %73, ptr %14, align 4, !tbaa !15
  br label %74

74:                                               ; preds = %71, %57
  %75 = load i32, ptr %14, align 4, !tbaa !15
  %76 = icmp sgt i32 %75, 4
  br i1 %76, label %77, label %105

77:                                               ; preds = %74
  %78 = load ptr, ptr %5, align 8, !tbaa !11
  %79 = getelementptr inbounds nuw %struct.UConverter, ptr %78, i32 0, i32 5
  %80 = load ptr, ptr %79, align 8, !tbaa !40
  %81 = load ptr, ptr %5, align 8, !tbaa !11
  %82 = getelementptr inbounds nuw %struct.UConverter, ptr %81, i32 0, i32 28
  %83 = getelementptr inbounds [2 x i16], ptr %82, i64 0, i64 0
  %84 = icmp eq ptr %80, %83
  br i1 %84, label %85, label %104

85:                                               ; preds = %77
  %86 = call noalias ptr @uprv_malloc_77(i64 noundef 64) #12
  %87 = load ptr, ptr %5, align 8, !tbaa !11
  %88 = getelementptr inbounds nuw %struct.UConverter, ptr %87, i32 0, i32 5
  store ptr %86, ptr %88, align 8, !tbaa !40
  %89 = load ptr, ptr %5, align 8, !tbaa !11
  %90 = getelementptr inbounds nuw %struct.UConverter, ptr %89, i32 0, i32 5
  %91 = load ptr, ptr %90, align 8, !tbaa !40
  %92 = icmp eq ptr %91, null
  br i1 %92, label %93, label %100

93:                                               ; preds = %85
  %94 = load ptr, ptr %5, align 8, !tbaa !11
  %95 = getelementptr inbounds nuw %struct.UConverter, ptr %94, i32 0, i32 28
  %96 = getelementptr inbounds [2 x i16], ptr %95, i64 0, i64 0
  %97 = load ptr, ptr %5, align 8, !tbaa !11
  %98 = getelementptr inbounds nuw %struct.UConverter, ptr %97, i32 0, i32 5
  store ptr %96, ptr %98, align 8, !tbaa !40
  %99 = load ptr, ptr %8, align 8, !tbaa !8
  store i32 7, ptr %99, align 4, !tbaa !9
  store i32 1, ptr %15, align 4
  br label %139

100:                                              ; preds = %85
  %101 = load ptr, ptr %5, align 8, !tbaa !11
  %102 = getelementptr inbounds nuw %struct.UConverter, ptr %101, i32 0, i32 5
  %103 = load ptr, ptr %102, align 8, !tbaa !40
  call void @llvm.memset.p0.i64(ptr align 1 %103, i8 0, i64 64, i1 false)
  br label %104

104:                                              ; preds = %100, %77
  br label %105

105:                                              ; preds = %104, %74
  %106 = load i32, ptr %14, align 4, !tbaa !15
  %107 = icmp eq i32 %106, 0
  br i1 %107, label %108, label %111

108:                                              ; preds = %105
  %109 = load ptr, ptr %5, align 8, !tbaa !11
  %110 = getelementptr inbounds nuw %struct.UConverter, ptr %109, i32 0, i32 19
  store i8 0, ptr %110, align 1, !tbaa !52
  br label %136

111:                                              ; preds = %105
  br label %112

112:                                              ; preds = %111
  %113 = load ptr, ptr %5, align 8, !tbaa !11
  %114 = getelementptr inbounds nuw %struct.UConverter, ptr %113, i32 0, i32 5
  %115 = load ptr, ptr %114, align 8, !tbaa !40
  %116 = load ptr, ptr %12, align 8, !tbaa !3
  %117 = load i32, ptr %14, align 4, !tbaa !15
  %118 = sext i32 %117 to i64
  call void @llvm.memcpy.p0.p0.i64(ptr align 1 %115, ptr align 1 %116, i64 %118, i1 false)
  br label %119

119:                                              ; preds = %112
  br label %120

120:                                              ; preds = %119
  %121 = load ptr, ptr %12, align 8, !tbaa !3
  %122 = getelementptr inbounds [32 x i8], ptr %10, i64 0, i64 0
  %123 = icmp eq ptr %121, %122
  br i1 %123, label %124, label %129

124:                                              ; preds = %120
  %125 = load i32, ptr %14, align 4, !tbaa !15
  %126 = trunc i32 %125 to i8
  %127 = load ptr, ptr %5, align 8, !tbaa !11
  %128 = getelementptr inbounds nuw %struct.UConverter, ptr %127, i32 0, i32 19
  store i8 %126, ptr %128, align 1, !tbaa !52
  br label %135

129:                                              ; preds = %120
  %130 = load i32, ptr %7, align 4, !tbaa !15
  %131 = sub nsw i32 0, %130
  %132 = trunc i32 %131 to i8
  %133 = load ptr, ptr %5, align 8, !tbaa !11
  %134 = getelementptr inbounds nuw %struct.UConverter, ptr %133, i32 0, i32 19
  store i8 %132, ptr %134, align 1, !tbaa !52
  br label %135

135:                                              ; preds = %129, %124
  br label %136

136:                                              ; preds = %135, %108
  %137 = load ptr, ptr %5, align 8, !tbaa !11
  %138 = getelementptr inbounds nuw %struct.UConverter, ptr %137, i32 0, i32 24
  store i8 0, ptr %138, align 2, !tbaa !57
  store i32 0, ptr %15, align 4
  br label %139

139:                                              ; preds = %136, %93, %62, %33
  call void @llvm.lifetime.end.p0(i64 4, ptr %14) #11
  call void @llvm.lifetime.end.p0(i64 4, ptr %13) #11
  call void @llvm.lifetime.end.p0(i64 8, ptr %12) #11
  call void @llvm.lifetime.end.p0(i64 8, ptr %11) #11
  call void @llvm.lifetime.end.p0(i64 32, ptr %10) #11
  call void @llvm.lifetime.end.p0(i64 1024, ptr %9) #11
  %140 = load i32, ptr %15, align 4
  switch i32 %140, label %142 [
    i32 0, label %141
    i32 1, label %141
  ]

141:                                              ; preds = %139, %139
  ret void

142:                                              ; preds = %139
  unreachable
}