; Function Attrs: mustprogress uwtable
define void @ucnv_setSubstString_77(ptr noundef %0, ptr noundef %1, i32 noundef %2, ptr noundef %3) local_unnamed_addr #0 {
  %5 = alloca [1024 x i8], align 8
  %6 = alloca [32 x i8], align 16
  %7 = alloca i32, align 4
  call void @llvm.lifetime.start.p0(i64 1024, ptr nonnull %5) #16
  call void @llvm.lifetime.start.p0(i64 32, ptr nonnull %6) #16
  call void @llvm.lifetime.start.p0(i64 4, ptr nonnull %7) #16
  store i32 1024, ptr %7, align 4, !tbaa !26
  %8 = call ptr @ucnv_safeClone_77(ptr noundef %0, ptr noundef nonnull %5, ptr noundef nonnull %7, ptr noundef %3)
  %9 = load i32, ptr %3, align 4, !tbaa !3
  %10 = icmp slt i32 %9, 1
  br i1 %10, label %11, label %ucnv_setFromUCallBack_77.exit

11:                                               ; preds = %4
  store ptr @UCNV_FROM_U_CALLBACK_STOP_77, ptr %8, align 8, !tbaa !40
  %12 = getelementptr inbounds nuw i8, ptr %8, i64 24
  store ptr null, ptr %12, align 8, !tbaa !41
  br label %ucnv_setFromUCallBack_77.exit

ucnv_setFromUCallBack_77.exit:                    ; preds = %4, %11
  %13 = call i32 @ucnv_fromUChars_77(ptr noundef %8, ptr noundef nonnull %6, i32 noundef 32, ptr noundef %1, i32 noundef %2, ptr noundef nonnull %3)
  call void @ucnv_close_77(ptr noundef %8)
  %14 = load i32, ptr %3, align 4, !tbaa !3
  %15 = icmp slt i32 %14, 1
  br i1 %15, label %16, label %66

16:                                               ; preds = %ucnv_setFromUCallBack_77.exit
  %17 = getelementptr inbounds nuw i8, ptr %0, i64 48
  %18 = load ptr, ptr %17, align 8, !tbaa !8
  %19 = getelementptr inbounds nuw i8, ptr %18, i64 32
  %20 = load ptr, ptr %19, align 8, !tbaa !15
  %21 = getelementptr inbounds nuw i8, ptr %20, i64 104
  %22 = load ptr, ptr %21, align 8, !tbaa !49
  %23 = icmp eq ptr %22, null
  br i1 %23, label %41, label %24

24:                                               ; preds = %16
  %25 = getelementptr inbounds nuw i8, ptr %18, i64 16
  %26 = load ptr, ptr %25, align 8, !tbaa !44
  %27 = getelementptr inbounds nuw i8, ptr %26, i64 69
  %28 = load i8, ptr %27, align 1, !tbaa !50
  %29 = icmp eq i8 %28, 2
  br i1 %29, label %30, label %32

30:                                               ; preds = %24
  %31 = call i32 @ucnv_MBCSGetType_77(ptr noundef nonnull %0)
  %.not43 = icmp eq i32 %31, 9
  br i1 %.not43, label %32, label %41

32:                                               ; preds = %30, %24
  %33 = icmp sgt i32 %2, 32
  br i1 %33, label %34, label %35

34:                                               ; preds = %32
  store i32 15, ptr %3, align 4, !tbaa !3
  br label %66

35:                                               ; preds = %32
  %36 = icmp slt i32 %2, 0
  br i1 %36, label %37, label %39

37:                                               ; preds = %35
  %38 = call i32 @u_strlen_77(ptr noundef %1)
  br label %39

39:                                               ; preds = %37, %35
  %.1 = phi i32 [ %38, %37 ], [ %2, %35 ]
  %40 = shl nsw i32 %.1, 1
  br label %41

41:                                               ; preds = %16, %30, %39
  %.039 = phi i32 [ %.1, %39 ], [ %2, %30 ], [ %2, %16 ]
  %.038 = phi ptr [ %1, %39 ], [ %6, %30 ], [ %6, %16 ]
  %.0 = phi i32 [ %40, %39 ], [ %13, %30 ], [ %13, %16 ]
  %42 = icmp sgt i32 %.0, 4
  br i1 %42, label %43, label %53

43:                                               ; preds = %41
  %44 = getelementptr inbounds nuw i8, ptr %0, i64 40
  %45 = load ptr, ptr %44, align 8, !tbaa !29
  %46 = getelementptr inbounds nuw i8, ptr %0, i64 136
  %47 = icmp eq ptr %45, %46
  br i1 %47, label %48, label %.thread

48:                                               ; preds = %43
  %49 = call noalias dereferenceable_or_null(64) ptr @uprv_malloc_77(i64 noundef 64) #17
  store ptr %49, ptr %44, align 8, !tbaa !29
  %50 = icmp eq ptr %49, null
  br i1 %50, label %51, label %52

51:                                               ; preds = %48
  store ptr %46, ptr %44, align 8, !tbaa !29
  store i32 7, ptr %3, align 4, !tbaa !3
  br label %66

52:                                               ; preds = %48
  call void @llvm.memset.p0.i64(ptr noundef nonnull align 1 dereferenceable(64) %49, i8 0, i64 64, i1 false)
  br label %.thread

53:                                               ; preds = %41
  %54 = icmp eq i32 %.0, 0
  br i1 %54, label %63, label %..thread_crit_edge

..thread_crit_edge:                               ; preds = %53
  %.phi.trans.insert = getelementptr inbounds nuw i8, ptr %0, i64 40
  %.pre = load ptr, ptr %.phi.trans.insert, align 8, !tbaa !29
  br label %.thread

.thread:                                          ; preds = %..thread_crit_edge, %52, %43
  %55 = phi ptr [ %.pre, %..thread_crit_edge ], [ %49, %52 ], [ %45, %43 ]
  %56 = sext i32 %.0 to i64
  call void @llvm.memcpy.p0.p0.i64(ptr align 1 %55, ptr align 1 %.038, i64 %56, i1 false)
  %57 = icmp eq ptr %.038, %6
  br i1 %57, label %58, label %60

58:                                               ; preds = %.thread
  %59 = trunc i32 %.0 to i8
  br label %63

60:                                               ; preds = %.thread
  %61 = trunc i32 %.039 to i8
  %62 = sub i8 0, %61
  br label %63

63:                                               ; preds = %53, %58, %60
  %.sink = phi i8 [ %59, %58 ], [ %62, %60 ], [ 0, %53 ]
  %64 = getelementptr inbounds nuw i8, ptr %0, i64 89
  store i8 %.sink, ptr %64, align 1, !tbaa !43
  %65 = getelementptr inbounds nuw i8, ptr %0, i64 94
  store i8 0, ptr %65, align 2, !tbaa !48
  br label %66

66:                                               ; preds = %ucnv_setFromUCallBack_77.exit, %63, %51, %34
  call void @llvm.lifetime.end.p0(i64 4, ptr nonnull %7) #16
  call void @llvm.lifetime.end.p0(i64 32, ptr nonnull %6) #16
  call void @llvm.lifetime.end.p0(i64 1024, ptr nonnull %5) #16
  ret void
}